target datalayout = "e-m:e-p270:32:32-p271:32:32-p272:64:64-i64:64-i128:128-f80:128-n8:16:32:64-S128"
target triple = "x86_64-pc-linux-gnu"

%struct.Vec_Int_t_ = type { i32, i32, ptr }
%struct.Qbf_Man_t_ = type { ptr, i32, i32, i32, i32, ptr, ptr, ptr, ptr, ptr, ptr, i64, i64 }
%struct.timespec = type { i64, i64 }

@.str.16 = private unnamed_addr constant [3 x i8] c"  \00", align 1
@.str.24 = private unnamed_addr constant [7 x i8] c"%5d : \00", align 1
@.str.25 = private unnamed_addr constant [3 x i8] c"%d\00", align 1
@.str.29 = private unnamed_addr constant [5 x i8] c"Time\00", align 1
@.str.32 = private unnamed_addr constant [11 x i8] c"Var =%7d  \00", align 1
@.str.33 = private unnamed_addr constant [11 x i8] c"Cla =%7d  \00", align 1
@.str.34 = private unnamed_addr constant [12 x i8] c"Conf =%9d  \00", align 1
@.str.57 = private unnamed_addr constant [5 x i8] c"%s =\00", align 1
@.str.58 = private unnamed_addr constant [11 x i8] c"%9.2f sec\0A\00", align 1

; Function Attrs: inlinehint nounwind uwtable
define internal i32 @Vec_IntEntry(ptr noundef %0, i32 noundef %1) #2 {
  %3 = alloca ptr, align 8
  %4 = alloca i32, align 4
  store ptr %0, ptr %3, align 8, !tbaa !10
  store i32 %1, ptr %4, align 4, !tbaa !8
  %5 = load ptr, ptr %3, align 8, !tbaa !10
  %6 = getelementptr inbounds nuw %struct.Vec_Int_t_, ptr %5, i32 0, i32 2
  %7 = load ptr, ptr %6, align 8, !tbaa !17
  %8 = load i32, ptr %4, align 4, !tbaa !8
  %9 = sext i32 %8 to i64
  %10 = getelementptr inbounds i32, ptr %7, i64 %9
  %11 = load i32, ptr %10, align 4, !tbaa !8
  ret i32 %11
}

; Function Attrs: inlinehint nounwind uwtable
define internal i32 @Vec_IntSize(ptr noundef %0) #2 {
  %2 = alloca ptr, align 8
  store ptr %0, ptr %2, align 8, !tbaa !10
  %3 = load ptr, ptr %2, align 8, !tbaa !10
  %4 = getelementptr inbounds nuw %struct.Vec_Int_t_, ptr %3, i32 0, i32 1
  %5 = load i32, ptr %4, align 4, !tbaa !14
  ret i32 %5
}

; Function Attrs: inlinehint nounwind uwtable
define internal void @Abc_PrintTime(i32 noundef %0, ptr noundef %1, i64 noundef %2) #2 {
  %4 = alloca i32, align 4
  %5 = alloca ptr, align 8
  %6 = alloca i64, align 8
  store i32 %0, ptr %4, align 4, !tbaa !8
  store ptr %1, ptr %5, align 8, !tbaa !3
  store i64 %2, ptr %6, align 8, !tbaa !72
  %7 = load ptr, ptr %5, align 8, !tbaa !3
  call void (i32, ptr, ...) @Abc_Print(i32 noundef 1, ptr noundef @.str.57, ptr noundef %7)
  %8 = load i64, ptr %6, align 8, !tbaa !72
  %9 = sitofp i64 %8 to double
  %10 = fmul double 1.000000e+00, %9
  %11 = fdiv double %10, 1.000000e+06
  call void (i32, ptr, ...) @Abc_Print(i32 noundef 1, ptr noundef @.str.58, double noundef %11)
  ret void
}

; Function Attrs: inlinehint nounwind uwtable
define internal i64 @Abc_Clock() #2 {
  %1 = alloca i64, align 8
  %2 = alloca %struct.timespec, align 8
  %3 = alloca i32, align 4
  %4 = alloca i64, align 8
  call void @llvm.lifetime.start.p0(i64 16, ptr %2) #14
  %5 = call i32 @clock_gettime(i32 noundef 1, ptr noundef %2) #14
  %6 = icmp slt i32 %5, 0
  br i1 %6, label %7, label %8

7:                                                ; preds = %0
  store i64 -1, ptr %1, align 8
  store i32 1, ptr %3, align 4
  br label %19

8:                                                ; preds = %0
  call void @llvm.lifetime.start.p0(i64 8, ptr %4) #14
  %9 = getelementptr inbounds nuw %struct.timespec, ptr %2, i32 0, i32 0
  %10 = load i64, ptr %9, align 8, !tbaa !214
  %11 = mul nsw i64 %10, 1000000
  store i64 %11, ptr %4, align 8, !tbaa !72
  %12 = getelementptr inbounds nuw %struct.timespec, ptr %2, i32 0, i32 1
  %13 = load i64, ptr %12, align 8, !tbaa !216
  %14 = mul nsw i64 %13, 1000000
  %15 = sdiv i64 %14, 1000000000
  %16 = load i64, ptr %4, align 8, !tbaa !72
  %17 = add nsw i64 %16, %15
  store i64 %17, ptr %4, align 8, !tbaa !72
  %18 = load i64, ptr %4, align 8, !tbaa !72
  store i64 %18, ptr %1, align 8
  store i32 1, ptr %3, align 4
  call void @llvm.lifetime.end.p0(i64 8, ptr %4) #14
  br label %19

19:                                               ; preds = %8, %7
  call void @llvm.lifetime.end.p0(i64 16, ptr %2) #14
  %20 = load i64, ptr %1, align 8
  ret i64 %20
}

; Function Attrs: inlinehint nounwind uwtable
define internal void @Vec_IntPrintBinary(ptr noundef %0) #2 {
  %2 = alloca ptr, align 8
  %3 = alloca i32, align 4
  %4 = alloca i32, align 4
  store ptr %0, ptr %2, align 8, !tbaa !10
  call void @llvm.lifetime.start.p0(i64 4, ptr %3) #14
  call void @llvm.lifetime.start.p0(i64 4, ptr %4) #14
  store i32 0, ptr %3, align 4, !tbaa !8
  br label %5

5:                                                ; preds = %21, %1
  %6 = load i32, ptr %3, align 4, !tbaa !8
  %7 = load ptr, ptr %2, align 8, !tbaa !10
  %8 = call i32 @Vec_IntSize(ptr noundef %7)
  %9 = icmp slt i32 %6, %8
  br i1 %9, label %10, label %14

10:                                               ; preds = %5
  %11 = load ptr, ptr %2, align 8, !tbaa !10
  %12 = load i32, ptr %3, align 4, !tbaa !8
  %13 = call i32 @Vec_IntEntry(ptr noundef %11, i32 noundef %12)
  store i32 %13, ptr %4, align 4, !tbaa !8
  br label %14

14:                                               ; preds = %10, %5
  %15 = phi i1 [ false, %5 ], [ true, %10 ]
  br i1 %15, label %16, label %24

16:                                               ; preds = %14
  %17 = load i32, ptr %4, align 4, !tbaa !8
  %18 = icmp ne i32 %17, 0
  %19 = zext i1 %18 to i32
  %20 = call i32 (ptr, ...) @printf(ptr noundef @.str.25, i32 noundef %19)
  br label %21

21:                                               ; preds = %16
  %22 = load i32, ptr %3, align 4, !tbaa !8
  %23 = add nsw i32 %22, 1
  store i32 %23, ptr %3, align 4, !tbaa !8
  br label %5, !llvm.loop !139

24:                                               ; preds = %14
  call void @llvm.lifetime.end.p0(i64 4, ptr %4) #14
  call void @llvm.lifetime.end.p0(i64 4, ptr %3) #14
  ret void
}

; Function Attrs: nounwind uwtable
define void @Gia_QbfPrint(ptr noundef %0, ptr noundef %1, i32 noundef %2) #0 {
  %4 = alloca ptr, align 8
  %5 = alloca ptr, align 8
  %6 = alloca i32, align 4
  store ptr %0, ptr %4, align 8, !tbaa !104
  store ptr %1, ptr %5, align 8, !tbaa !10
  store i32 %2, ptr %6, align 4, !tbaa !8
  %7 = load i32, ptr %6, align 4, !tbaa !8
  %8 = call i32 (ptr, ...) @printf(ptr noundef @.str.24, i32 noundef %7)
  %9 = load ptr, ptr %5, align 8, !tbaa !10
  call void @Vec_IntPrintBinary(ptr noundef %9)
  %10 = call i32 (ptr, ...) @printf(ptr noundef @.str.16)
  %11 = load ptr, ptr %4, align 8, !tbaa !104
  %12 = getelementptr inbounds nuw %struct.Qbf_Man_t_, ptr %11, i32 0, i32 7
  %13 = load ptr, ptr %12, align 8, !tbaa !115
  %14 = icmp ne ptr %13, null
  br i1 %14, label %15, label %20

15:                                               ; preds = %3
  %16 = load ptr, ptr %4, align 8, !tbaa !104
  %17 = getelementptr inbounds nuw %struct.Qbf_Man_t_, ptr %16, i32 0, i32 7
  %18 = load ptr, ptr %17, align 8, !tbaa !115
  %19 = call i32 @bmcg_sat_solver_varnum(ptr noundef %18)
  br label %25

20:                                               ; preds = %3
  %21 = load ptr, ptr %4, align 8, !tbaa !104
  %22 = getelementptr inbounds nuw %struct.Qbf_Man_t_, ptr %21, i32 0, i32 6
  %23 = load ptr, ptr %22, align 8, !tbaa !114
  %24 = call i32 @sat_solver_nvars(ptr noundef %23)
  br label %25

25:                                               ; preds = %20, %15
  %26 = phi i32 [ %19, %15 ], [ %24, %20 ]
  %27 = call i32 (ptr, ...) @printf(ptr noundef @.str.32, i32 noundef %26)
  %28 = load ptr, ptr %4, align 8, !tbaa !104
  %29 = getelementptr inbounds nuw %struct.Qbf_Man_t_, ptr %28, i32 0, i32 7
  %30 = load ptr, ptr %29, align 8, !tbaa !115
  %31 = icmp ne ptr %30, null
  br i1 %31, label %32, label %37

32:                                               ; preds = %25
  %33 = load ptr, ptr %4, align 8, !tbaa !104
  %34 = getelementptr inbounds nuw %struct.Qbf_Man_t_, ptr %33, i32 0, i32 7
  %35 = load ptr, ptr %34, align 8, !tbaa !115
  %36 = call i32 @bmcg_sat_solver_clausenum(ptr noundef %35)
  br label %42

37:                                               ; preds = %25
  %38 = load ptr, ptr %4, align 8, !tbaa !104
  %39 = getelementptr inbounds nuw %struct.Qbf_Man_t_, ptr %38, i32 0, i32 6
  %40 = load ptr, ptr %39, align 8, !tbaa !114
  %41 = call i32 @sat_solver_nclauses(ptr noundef %40)
  br label %42

42:                                               ; preds = %37, %32
  %43 = phi i32 [ %36, %32 ], [ %41, %37 ]
  %44 = call i32 (ptr, ...) @printf(ptr noundef @.str.33, i32 noundef %43)
  %45 = load ptr, ptr %4, align 8, !tbaa !104
  %46 = getelementptr inbounds nuw %struct.Qbf_Man_t_, ptr %45, i32 0, i32 7
  %47 = load ptr, ptr %46, align 8, !tbaa !115
  %48 = icmp ne ptr %47, null
  br i1 %48, label %49, label %54

49:                                               ; preds = %42
  %50 = load ptr, ptr %4, align 8, !tbaa !104
  %51 = getelementptr inbounds nuw %struct.Qbf_Man_t_, ptr %50, i32 0, i32 7
  %52 = load ptr, ptr %51, align 8, !tbaa !115
  %53 = call i32 @bmcg_sat_solver_conflictnum(ptr noundef %52)
  br label %59

54:                                               ; preds = %42
  %55 = load ptr, ptr %4, align 8, !tbaa !104
  %56 = getelementptr inbounds nuw %struct.Qbf_Man_t_, ptr %55, i32 0, i32 6
  %57 = load ptr, ptr %56, align 8, !tbaa !114
  %58 = call i32 @sat_solver_nconflicts(ptr noundef %57)
  br label %59

59:                                               ; preds = %54, %49
  %60 = phi i32 [ %53, %49 ], [ %58, %54 ]
  %61 = call i32 (ptr, ...) @printf(ptr noundef @.str.34, i32 noundef %60)
  %62 = call i64 @Abc_Clock()
  %63 = load ptr, ptr %4, align 8, !tbaa !104
  %64 = getelementptr inbounds nuw %struct.Qbf_Man_t_, ptr %63, i32 0, i32 11
  %65 = load i64, ptr %64, align 8, !tbaa !106
  %66 = sub nsw i64 %62, %65
  call void @Abc_PrintTime(i32 noundef 1, ptr noundef @.str.29, i64 noundef %66)
  ret void
}