; Function Attrs: nounwind uwtable
define void @Gia_QbfPrint(ptr noundef readonly captures(none) %0, ptr noundef readonly captures(none) %1, i32 noundef %2) local_unnamed_addr #0 {
  %4 = alloca %struct.timespec, align 8
  %5 = tail call i32 (ptr, ...) @printf(ptr noundef nonnull dereferenceable(1) @.str.24, i32 noundef %2)
  %6 = getelementptr i8, ptr %1, i64 4
  %.val6.i = load i32, ptr %6, align 4, !tbaa !11
  %7 = icmp sgt i32 %.val6.i, 0
  br i1 %7, label %.lr.ph.i, label %Vec_IntPrintBinary.exit

.lr.ph.i:                                         ; preds = %3
  %8 = getelementptr i8, ptr %1, i64 8
  br label %9

9:                                                ; preds = %9, %.lr.ph.i
  %indvars.iv.i = phi i64 [ 0, %.lr.ph.i ], [ %indvars.iv.next.i, %9 ]
  %.val5.i = load ptr, ptr %8, align 8, !tbaa !10
  %10 = getelementptr inbounds nuw i32, ptr %.val5.i, i64 %indvars.iv.i
  %11 = load i32, ptr %10, align 4, !tbaa !12
  %12 = icmp ne i32 %11, 0
  %13 = zext i1 %12 to i32
  %14 = tail call i32 (ptr, ...) @printf(ptr noundef nonnull dereferenceable(1) @.str.25, i32 noundef %13)
  %indvars.iv.next.i = add nuw nsw i64 %indvars.iv.i, 1
  %.val.i = load i32, ptr %6, align 4, !tbaa !11
  %15 = sext i32 %.val.i to i64
  %16 = icmp slt i64 %indvars.iv.next.i, %15
  br i1 %16, label %9, label %Vec_IntPrintBinary.exit, !llvm.loop !130

Vec_IntPrintBinary.exit:                          ; preds = %9, %3
  %17 = tail call i32 (ptr, ...) @printf(ptr noundef nonnull dereferenceable(1) @.str.16)
  %18 = getelementptr inbounds nuw i8, ptr %0, i64 40
  %19 = load ptr, ptr %18, align 8, !tbaa !106
  %.not = icmp eq ptr %19, null
  br i1 %.not, label %22, label %20

20:                                               ; preds = %Vec_IntPrintBinary.exit
  %21 = tail call i32 @bmcg_sat_solver_varnum(ptr noundef nonnull %19) #29
  br label %26

22:                                               ; preds = %Vec_IntPrintBinary.exit
  %23 = getelementptr inbounds nuw i8, ptr %0, i64 32
  %24 = load ptr, ptr %23, align 8, !tbaa !105
  %25 = tail call i32 @sat_solver_nvars(ptr noundef %24) #29
  br label %26

26:                                               ; preds = %22, %20
  %27 = phi i32 [ %21, %20 ], [ %25, %22 ]
  %28 = tail call i32 (ptr, ...) @printf(ptr noundef nonnull dereferenceable(1) @.str.32, i32 noundef %27)
  %29 = load ptr, ptr %18, align 8, !tbaa !106
  %.not13 = icmp eq ptr %29, null
  br i1 %.not13, label %32, label %30

30:                                               ; preds = %26
  %31 = tail call i32 @bmcg_sat_solver_clausenum(ptr noundef nonnull %29) #29
  br label %36

32:                                               ; preds = %26
  %33 = getelementptr inbounds nuw i8, ptr %0, i64 32
  %34 = load ptr, ptr %33, align 8, !tbaa !105
  %35 = tail call i32 @sat_solver_nclauses(ptr noundef %34) #29
  br label %36

36:                                               ; preds = %32, %30
  %37 = phi i32 [ %31, %30 ], [ %35, %32 ]
  %38 = tail call i32 (ptr, ...) @printf(ptr noundef nonnull dereferenceable(1) @.str.33, i32 noundef %37)
  %39 = load ptr, ptr %18, align 8, !tbaa !106
  %.not14 = icmp eq ptr %39, null
  br i1 %.not14, label %42, label %40

40:                                               ; preds = %36
  %41 = tail call i32 @bmcg_sat_solver_conflictnum(ptr noundef nonnull %39) #29
  br label %46

42:                                               ; preds = %36
  %43 = getelementptr inbounds nuw i8, ptr %0, i64 32
  %44 = load ptr, ptr %43, align 8, !tbaa !105
  %45 = tail call i32 @sat_solver_nconflicts(ptr noundef %44) #29
  br label %46

46:                                               ; preds = %42, %40
  %47 = phi i32 [ %41, %40 ], [ %45, %42 ]
  %48 = tail call i32 (ptr, ...) @printf(ptr noundef nonnull dereferenceable(1) @.str.34, i32 noundef %47)
  call void @llvm.lifetime.start.p0(i64 16, ptr nonnull %4) #29
  %49 = call i32 @clock_gettime(i32 noundef 1, ptr noundef nonnull %4) #29
  %50 = icmp slt i32 %49, 0
  br i1 %50, label %Abc_Clock.exit, label %51

51:                                               ; preds = %46
  %52 = load i64, ptr %4, align 8, !tbaa !72
  %53 = mul nsw i64 %52, 1000000
  %54 = getelementptr inbounds nuw i8, ptr %4, i64 8
  %55 = load i64, ptr %54, align 8, !tbaa !74
  %56 = sdiv i64 %55, 1000
  %57 = add nsw i64 %56, %53
  br label %Abc_Clock.exit

Abc_Clock.exit:                                   ; preds = %46, %51
  %.0.i = phi i64 [ %57, %51 ], [ -1, %46 ]
  call void @llvm.lifetime.end.p0(i64 16, ptr nonnull %4) #29
  %58 = getelementptr inbounds nuw i8, ptr %0, i64 72
  %59 = load i64, ptr %58, align 8, !tbaa !96
  %60 = sub nsw i64 %.0.i, %59
  call void (i32, ptr, ...) @Abc_Print(i32 poison, ptr noundef nonnull @.str.57, ptr noundef nonnull @.str.29)
  %61 = sitofp i64 %60 to double
  %62 = fdiv double %61, 1.000000e+06
  call void (i32, ptr, ...) @Abc_Print(i32 poison, ptr noundef nonnull @.str.58, double noundef %62)
  ret void
}